(dp0
S'19,6'
p1
I1
sS'19,7'
p2
I3
sS'19,5'
p3
I4
sS'19,8'
p4
I5
sS'19,9'
p5
I9
sS'9,8'
p6
I1
sS'23,14'
p7
I13
sS'16,14'
p8
I1
sS'7,7'
p9
I1
sS'16,11'
p10
I7
sS'16,10'
p11
I1
sS'16,13'
p12
I3
sS'16,12'
p13
I1
sS'5,8'
p14
I2
sS'5,9'
p15
I2
sS'3,8'
p16
I1
sS'3,9'
p17
I20
sS'22,10'
p18
I5
sS'22,11'
p19
I12
sS'3,4'
p20
I20
sS'3,5'
p21
I3
sS'3,6'
p22
I1
sS'3,7'
p23
I1
sS'5,6'
p24
I1
sS'11,7'
p25
I4
sS'3,2'
p26
I17
sS'3,3'
p27
I1
sS'15,14'
p28
I9
sS'15,10'
p29
I5
sS'15,11'
p30
I3
sS'15,12'
p31
I1
sS'15,13'
p32
I6
sS'28,14'
p33
I2
sS'3,14'
p34
I3
sS'23,12'
p35
I1
sS'3,12'
p36
I4
sS'3,13'
p37
I1
sS'3,10'
p38
I1
sS'3,11'
p39
I2
sS'29,13'
p40
I10
sS'29,12'
p41
I1
sS'29,11'
p42
I2
sS'29,10'
p43
I12
sS'21,9'
p44
I9
sS'18,8'
p45
I10
sS'5,14'
p46
I4
sS'13,13'
p47
I2
sS'13,10'
p48
I6
sS'13,11'
p49
I2
sS'5,10'
p50
I1
sS'5,11'
p51
I1
sS'5,12'
p52
I6
sS'5,13'
p53
I1
sS'24,10'
p54
I13
sS'18,14'
p55
I8
sS'18,13'
p56
I3
sS'18,12'
p57
I7
sS'18,11'
p58
I7
sS'18,10'
p59
I1
sS'14,13'
p60
I9
sS'14,12'
p61
I1
sS'14,11'
p62
I2
sS'14,10'
p63
I3
sS'23,11'
p64
I3
sS'23,10'
p65
I3
sS'23,13'
p66
I5
sS'14,14'
p67
I7
sS'16,6'
p68
I7
sS'15,8'
p69
I8
sS'15,9'
p70
I2
sS'15,6'
p71
I12
sS'15,7'
p72
I6
sS'15,5'
p73
I4
sS'16,5'
p74
I6
sS'20,14'
p75
I2
sS'25,9'
p76
I12
sS'20,10'
p77
I1
sS'20,11'
p78
I1
sS'20,12'
p79
I3
sS'20,13'
p80
I6
sS'11,10'
p81
I5
sS'11,11'
p82
I3
sS'11,12'
p83
I2
sS'11,13'
p84
I4
sS'11,14'
p85
I3
sS'25,5'
p86
I4
sS'13,5'
p87
I9
sS'24,13'
p88
I10
sS'22,14'
p89
I9
sS'26,12'
p90
I1
sS'26,13'
p91
I4
sS'26,10'
p92
I6
sS'26,11'
p93
I1
sS'10,13'
p94
I1
sS'10,12'
p95
I3
sS'10,11'
p96
I1
sS'10,10'
p97
I4
sS'6,9'
p98
I1
sS'6,8'
p99
I4
sS'8,5'
p100
I1
sS'21,13'
p101
I3
sS'21,12'
p102
I7
sS'21,11'
p103
I6
sS'21,10'
p104
I1
sS'6,5'
p105
I3
sS'6,4'
p106
I3
sS'6,7'
p107
I4
sS'12,6'
p108
I2
sS'6,14'
p109
I1
sS'6,11'
p110
I7
sS'6,10'
p111
I1
sS'6,13'
p112
I4
sS'6,12'
p113
I6
sS'21,8'
p114
I4
sS'21,7'
p115
I9
sS'25,7'
p116
I4
sS'16,9'
p117
I7
sS'16,8'
p118
I7
sS'8,9'
p119
I1
sS'8,8'
p120
I3
sS'8,7'
p121
I1
sS'8,6'
p122
I1
sS'24,12'
p123
I12
sS'8,4'
p124
I13
sS'8,3'
p125
I3
sS'8,2'
p126
I4
sS'8,1'
p127
I4
sS'27,11'
p128
I2
sS'12,4'
p129
I2
sS'27,10'
p130
I6
sS'21,6'
p131
I4
sS'25,14'
p132
I9
sS'25,13'
p133
I7
sS'25,12'
p134
I10
sS'25,11'
p135
I1
sS'25,10'
p136
I10
sS'7,1'
p137
I4
sS'11,9'
p138
I2
sS'22,12'
p139
I5
sS'15,1'
p140
I2
sS'22,13'
p141
I4
sS'12,11'
p142
I6
sS'12,10'
p143
I1
sS'12,13'
p144
I5
sS'12,12'
p145
I6
sS'12,14'
p146
I6
sS'16,4'
p147
I4
sS'20,9'
p148
I2
sS'24,6'
p149
I7
sS'5,2'
p150
I3
sS'11,1'
p151
I4
sS'18,7'
p152
I4
sS'18,6'
p153
I4
sS'18,5'
p154
I4
sS'5,3'
p155
I2
sS'17,7'
p156
I9
sS'18,9'
p157
I1
sS'11,4'
p158
I4
sS'21,14'
p159
I7
sS'5,7'
p160
I4
sS'13,7'
p161
I2
sS'5,1'
p162
I7
sS'27,14'
p163
I9
sS'16,7'
p164
I10
sS'11,6'
p165
I1
sS'3,1'
p166
I20
sS'26,8'
p167
I4
sS'13,4'
p168
I4
sS'5,4'
p169
I1
sS'13,6'
p170
I2
sS'26,9'
p171
I4
sS'13,8'
p172
I4
sS'13,9'
p173
I1
sS'11,5'
p174
I1
sS'4,3'
p175
I19
sS'4,2'
p176
I19
sS'27,13'
p177
I8
sS'27,12'
p178
I12
sS'4,7'
p179
I1
sS'4,6'
p180
I11
sS'4,5'
p181
I15
sS'4,4'
p182
I4
sS'20,6'
p183
I7
sS'20,7'
p184
I2
sS'4,9'
p185
I4
sS'4,8'
p186
I1
sS'17,5'
p187
I3
sS'17,6'
p188
I7
sS'20,8'
p189
I4
sS'5,5'
p190
I1
sS'17,8'
p191
I7
sS'17,9'
p192
I2
sS'8,13'
p193
I3
sS'8,12'
p194
I5
sS'8,11'
p195
I1
sS'8,10'
p196
I1
sS'8,14'
p197
I3
sS'7,12'
p198
I3
sS'7,13'
p199
I1
sS'7,10'
p200
I1
sS'7,11'
p201
I2
sS'17,14'
p202
I7
sS'7,14'
p203
I6
sS'27,9'
p204
I4
sS'27,8'
p205
I7
sS'24,9'
p206
I2
sS'19,14'
p207
I4
sS'4,1'
p208
I3
sS'27,7'
p209
I12
sS'12,9'
p210
I4
sS'3,15'
p211
I3
sS'6,2'
p212
I4
sS'12,8'
p213
I4
sS'28,10'
p214
I4
sS'24,14'
p215
I4
sS'28,11'
p216
I7
sS'4,14'
p217
I4
sS'10,14'
p218
I1
sS'28,12'
p219
I13
sS'23,7'
p220
I11
sS'28,13'
p221
I10
sS'13,1'
p222
I4
sS'6,1'
p223
I3
sS'11,8'
p224
I4
sS'4,13'
p225
I1
sS'4,12'
p226
I1
sS'4,11'
p227
I1
sS'4,10'
p228
I20
sS'6,3'
p229
I8
sS'9,6'
p230
I1
sS'7,9'
p231
I4
sS'9,4'
p232
I4
sS'9,5'
p233
I2
sS'9,2'
p234
I4
sS'9,3'
p235
I7
sS'9,1'
p236
I4
sS'12,5'
p237
I9
sS'7,2'
p238
I3
sS'7,3'
p239
I4
sS'7,4'
p240
I1
sS'7,5'
p241
I1
sS'7,6'
p242
I1
sS'9,9'
p243
I1
sS'13,12'
p244
I2
sS'10,9'
p245
I1
sS'10,8'
p246
I1
sS'12,7'
p247
I4
sS'5,15'
p248
I4
sS'23,9'
p249
I2
sS'6,6'
p250
I3
sS'10,7'
p251
I4
sS'10,6'
p252
I8
sS'10,5'
p253
I2
sS'10,4'
p254
I5
sS'28,6'
p255
I4
sS'7,8'
p256
I1
sS'28,4'
p257
I4
sS'9,7'
p258
I3
sS'18,4'
p259
I4
sS'28,9'
p260
I10
sS'13,14'
p261
I3
sS'9,10'
p262
I5
sS'9,11'
p263
I2
sS'9,12'
p264
I1
sS'9,13'
p265
I1
sS'9,14'
p266
I1
sS'19,10'
p267
I9
sS'19,11'
p268
I6
sS'19,12'
p269
I12
sS'19,13'
p270
I9
sS'17,12'
p271
I5
sS'17,13'
p272
I4
sS'17,10'
p273
I1
sS'17,11'
p274
I3
sS'24,11'
p275
I1
sS'22,7'
p276
I9
sS'14,9'
p277
I3
sS'14,8'
p278
I4
sS'14,7'
p279
I2
sS'14,6'
p280
I10
sS'14,5'
p281
I4
sS'22,8'
p282
I6
sS'22,9'
p283
I5
s.